	.section	__TEXT,__text,regular,pure_instructions
	.section	__TEXT,__text,regular,pure_instructions
	.globl	__Z14window_resizedP10GLFWwindowii
	.align	4, 0x90
__Z14window_resizedP10GLFWwindowii:     ## @_Z14window_resizedP10GLFWwindowii
Lfunc_begin0:
	.loc	1 22 0                  ## /Users/elliotfiske/471/OpenGL-tutorial_v0014_21/lab4/prog2A.cpp:22:0
	.cfi_startproc
## BB#0:
	pushq	%rbp
Ltmp2:
	.cfi_def_cfa_offset 16
Ltmp3:
	.cfi_offset %rbp, -16
	movq	%rsp, %rbp
Ltmp4:
	.cfi_def_cfa_register %rbp
	subq	$32, %rsp
	leaq	L_.str(%rip), %rax
	movq	%rdi, -8(%rbp)
	movl	%esi, -12(%rbp)
	movl	%edx, -16(%rbp)
	.loc	1 23 0 prologue_end     ## /Users/elliotfiske/471/OpenGL-tutorial_v0014_21/lab4/prog2A.cpp:23:0
Ltmp5:
	movl	_width(%rip), %esi
	movl	_height(%rip), %edx
	movq	%rax, %rdi
	movb	$0, %al
	callq	_printf
	movl	$0, %edx
	.loc	1 24 0                  ## /Users/elliotfiske/471/OpenGL-tutorial_v0014_21/lab4/prog2A.cpp:24:0
	movl	-12(%rbp), %esi
	movl	%esi, _width(%rip)
	.loc	1 25 0                  ## /Users/elliotfiske/471/OpenGL-tutorial_v0014_21/lab4/prog2A.cpp:25:0
	movl	-16(%rbp), %esi
	movl	%esi, _height(%rip)
	.loc	1 26 0                  ## /Users/elliotfiske/471/OpenGL-tutorial_v0014_21/lab4/prog2A.cpp:26:0
	movl	_width(%rip), %esi
	movl	_height(%rip), %ecx
	movl	%edx, %edi
	movl	%esi, -20(%rbp)         ## 4-byte Spill
	movl	%edx, %esi
	movl	-20(%rbp), %edx         ## 4-byte Reload
	movl	%eax, -24(%rbp)         ## 4-byte Spill
	callq	_glViewport
	.loc	1 27 0                  ## /Users/elliotfiske/471/OpenGL-tutorial_v0014_21/lab4/prog2A.cpp:27:0
	addq	$32, %rsp
	popq	%rbp
	retq
Ltmp6:
Lfunc_end0:
	.cfi_endproc

	.section	__TEXT,__literal8,8byte_literals
	.align	3
LCPI1_0:
	.quad	4576918229304087675     ## double 0.01
	.section	__TEXT,__literal4,4byte_literals
	.align	2
LCPI1_1:
	.long	1050253722              ## float 0.300000012
	.section	__TEXT,__text,regular,pure_instructions
	.globl	_main
	.align	4, 0x90
_main:                                  ## @main
Lfunc_begin1:
	.loc	1 30 0                  ## /Users/elliotfiske/471/OpenGL-tutorial_v0014_21/lab4/prog2A.cpp:30:0
	.cfi_startproc
## BB#0:
	pushq	%rbp
Ltmp10:
	.cfi_def_cfa_offset 16
Ltmp11:
	.cfi_offset %rbp, -16
	movq	%rsp, %rbp
Ltmp12:
	.cfi_def_cfa_register %rbp
	pushq	%r15
	pushq	%r14
	pushq	%rbx
	subq	$408, %rsp              ## imm = 0x198
Ltmp13:
	.cfi_offset %rbx, -40
Ltmp14:
	.cfi_offset %r14, -32
Ltmp15:
	.cfi_offset %r15, -24
	movl	$0, -28(%rbp)
	.loc	1 32 0 prologue_end     ## /Users/elliotfiske/471/OpenGL-tutorial_v0014_21/lab4/prog2A.cpp:32:0
Ltmp16:
	callq	_glfwInit
	cmpl	$0, %eax
	jne	LBB1_2
## BB#1:
	leaq	L_.str1(%rip), %rsi
	movq	___stderrp@GOTPCREL(%rip), %rax
	.loc	1 34 0                  ## /Users/elliotfiske/471/OpenGL-tutorial_v0014_21/lab4/prog2A.cpp:34:0
Ltmp17:
	movq	(%rax), %rdi
	movb	$0, %al
	callq	_fprintf
	.loc	1 35 0                  ## /Users/elliotfiske/471/OpenGL-tutorial_v0014_21/lab4/prog2A.cpp:35:0
	movl	$-1, -28(%rbp)
	movl	%eax, -84(%rbp)         ## 4-byte Spill
	jmp	LBB1_22
Ltmp18:
LBB1_2:
	movl	$135181, %edi           ## imm = 0x2100D
	movl	$4, %esi
	.loc	1 38 0                  ## /Users/elliotfiske/471/OpenGL-tutorial_v0014_21/lab4/prog2A.cpp:38:0
	callq	_glfwWindowHint
	movl	$139266, %edi           ## imm = 0x22002
	movl	$2, %esi
	.loc	1 39 0                  ## /Users/elliotfiske/471/OpenGL-tutorial_v0014_21/lab4/prog2A.cpp:39:0
	callq	_glfwWindowHint
	movl	$139267, %edi           ## imm = 0x22003
	movl	$1, %esi
	.loc	1 40 0                  ## /Users/elliotfiske/471/OpenGL-tutorial_v0014_21/lab4/prog2A.cpp:40:0
	callq	_glfwWindowHint
	leaq	L_.str2(%rip), %rdx
	movabsq	$0, %rax
	.loc	1 44 0                  ## /Users/elliotfiske/471/OpenGL-tutorial_v0014_21/lab4/prog2A.cpp:44:0
	movl	$800, _width(%rip)      ## imm = 0x320
	.loc	1 45 0                  ## /Users/elliotfiske/471/OpenGL-tutorial_v0014_21/lab4/prog2A.cpp:45:0
	movl	$800, _height(%rip)     ## imm = 0x320
	.loc	1 46 0                  ## /Users/elliotfiske/471/OpenGL-tutorial_v0014_21/lab4/prog2A.cpp:46:0
	movl	_width(%rip), %edi
	movl	_height(%rip), %esi
	movq	%rax, %rcx
	movq	%rax, %r8
	callq	_glfwCreateWindow
	movq	%rax, _window(%rip)
	.loc	1 47 0                  ## /Users/elliotfiske/471/OpenGL-tutorial_v0014_21/lab4/prog2A.cpp:47:0
Ltmp19:
	cmpq	$0, _window(%rip)
	jne	LBB1_4
## BB#3:
	leaq	L_.str3(%rip), %rsi
	movq	___stderrp@GOTPCREL(%rip), %rax
	.loc	1 48 0                  ## /Users/elliotfiske/471/OpenGL-tutorial_v0014_21/lab4/prog2A.cpp:48:0
Ltmp20:
	movq	(%rax), %rdi
	movb	$0, %al
	callq	_fprintf
	.loc	1 49 0                  ## /Users/elliotfiske/471/OpenGL-tutorial_v0014_21/lab4/prog2A.cpp:49:0
	movl	%eax, -88(%rbp)         ## 4-byte Spill
	callq	_glfwTerminate
	.loc	1 50 0                  ## /Users/elliotfiske/471/OpenGL-tutorial_v0014_21/lab4/prog2A.cpp:50:0
	movl	$-1, -28(%rbp)
	jmp	LBB1_22
Ltmp21:
LBB1_4:
	.loc	1 52 0                  ## /Users/elliotfiske/471/OpenGL-tutorial_v0014_21/lab4/prog2A.cpp:52:0
	movq	_window(%rip), %rdi
	callq	_glfwMakeContextCurrent
	.loc	1 55 0                  ## /Users/elliotfiske/471/OpenGL-tutorial_v0014_21/lab4/prog2A.cpp:55:0
Ltmp22:
	callq	_glewInit
	cmpl	$0, %eax
	je	LBB1_6
## BB#5:
	leaq	L_.str4(%rip), %rsi
	movq	___stderrp@GOTPCREL(%rip), %rax
	.loc	1 56 0                  ## /Users/elliotfiske/471/OpenGL-tutorial_v0014_21/lab4/prog2A.cpp:56:0
Ltmp23:
	movq	(%rax), %rdi
	movb	$0, %al
	callq	_fprintf
	.loc	1 57 0                  ## /Users/elliotfiske/471/OpenGL-tutorial_v0014_21/lab4/prog2A.cpp:57:0
	movl	$-1, -28(%rbp)
	movl	%eax, -92(%rbp)         ## 4-byte Spill
	jmp	LBB1_22
Ltmp24:
LBB1_6:
	movl	$208898, %esi           ## imm = 0x33002
	movl	$1, %edx
	.loc	1 61 0                  ## /Users/elliotfiske/471/OpenGL-tutorial_v0014_21/lab4/prog2A.cpp:61:0
	movq	_window(%rip), %rdi
	callq	_glfwSetInputMode
	leaq	__Z14window_resizedP10GLFWwindowii(%rip), %rsi
	.loc	1 63 0                  ## /Users/elliotfiske/471/OpenGL-tutorial_v0014_21/lab4/prog2A.cpp:63:0
	movq	_window(%rip), %rdi
	callq	_glfwSetWindowSizeCallback
	xorps	%xmm0, %xmm0
	.loc	1 66 0                  ## /Users/elliotfiske/471/OpenGL-tutorial_v0014_21/lab4/prog2A.cpp:66:0
	movss	%xmm0, -96(%rbp)        ## 4-byte Spill
	movss	-96(%rbp), %xmm1        ## 4-byte Reload
	movss	-96(%rbp), %xmm2        ## 4-byte Reload
	movss	-96(%rbp), %xmm3        ## 4-byte Reload
	movq	%rax, -104(%rbp)        ## 8-byte Spill
	callq	_glClearColor
	movl	$34370, %edi            ## imm = 0x8642
	.loc	1 67 0                  ## /Users/elliotfiske/471/OpenGL-tutorial_v0014_21/lab4/prog2A.cpp:67:0
	callq	_glEnable
	leaq	L_.str5(%rip), %rdi
	leaq	L_.str6(%rip), %rsi
	.loc	1 70 0                  ## /Users/elliotfiske/471/OpenGL-tutorial_v0014_21/lab4/prog2A.cpp:70:0
	callq	__Z11LoadShadersPKcS0_
	movabsq	$0, %rdi
	leaq	L_.str12(%rip), %rsi
	movq	___glewGetUniformLocation@GOTPCREL(%rip), %rcx
	leaq	L_.str11(%rip), %r8
	leaq	L_.str10(%rip), %r9
	leaq	L_.str9(%rip), %r10
	leaq	L_.str8(%rip), %r11
	movq	___glewGetAttribLocation@GOTPCREL(%rip), %rbx
	leaq	L_.str7(%rip), %r14
	movl	%eax, -32(%rbp)
	.loc	1 73 0                  ## /Users/elliotfiske/471/OpenGL-tutorial_v0014_21/lab4/prog2A.cpp:73:0
	movq	(%rbx), %r15
	movl	-32(%rbp), %eax
	movq	%rdi, -112(%rbp)        ## 8-byte Spill
	movl	%eax, %edi
	movq	%rsi, -120(%rbp)        ## 8-byte Spill
	movq	%r14, %rsi
	movq	%rbx, -128(%rbp)        ## 8-byte Spill
	movq	%r10, -136(%rbp)        ## 8-byte Spill
	movq	%r11, -144(%rbp)        ## 8-byte Spill
	movq	%rcx, -152(%rbp)        ## 8-byte Spill
	movq	%r8, -160(%rbp)         ## 8-byte Spill
	movq	%r9, -168(%rbp)         ## 8-byte Spill
	callq	*%r15
	movl	%eax, -36(%rbp)
	.loc	1 74 0                  ## /Users/elliotfiske/471/OpenGL-tutorial_v0014_21/lab4/prog2A.cpp:74:0
	movq	-128(%rbp), %rcx        ## 8-byte Reload
	movq	(%rcx), %rsi
	movl	-32(%rbp), %edi
	movq	-144(%rbp), %r8         ## 8-byte Reload
	movq	%rsi, -176(%rbp)        ## 8-byte Spill
	movq	%r8, %rsi
	movq	-176(%rbp), %r9         ## 8-byte Reload
	callq	*%r9
	movl	%eax, -40(%rbp)
	.loc	1 75 0                  ## /Users/elliotfiske/471/OpenGL-tutorial_v0014_21/lab4/prog2A.cpp:75:0
	movq	-152(%rbp), %rcx        ## 8-byte Reload
	movq	(%rcx), %rsi
	movl	-32(%rbp), %edi
	movq	-136(%rbp), %r8         ## 8-byte Reload
	movq	%rsi, -184(%rbp)        ## 8-byte Spill
	movq	%r8, %rsi
	movq	-184(%rbp), %r9         ## 8-byte Reload
	callq	*%r9
	movl	%eax, -44(%rbp)
	.loc	1 76 0                  ## /Users/elliotfiske/471/OpenGL-tutorial_v0014_21/lab4/prog2A.cpp:76:0
	movq	-152(%rbp), %rcx        ## 8-byte Reload
	movq	(%rcx), %rsi
	movl	-32(%rbp), %edi
	movq	-168(%rbp), %r8         ## 8-byte Reload
	movq	%rsi, -192(%rbp)        ## 8-byte Spill
	movq	%r8, %rsi
	movq	-192(%rbp), %r9         ## 8-byte Reload
	callq	*%r9
	movl	%eax, -48(%rbp)
	.loc	1 77 0                  ## /Users/elliotfiske/471/OpenGL-tutorial_v0014_21/lab4/prog2A.cpp:77:0
	movq	-152(%rbp), %rcx        ## 8-byte Reload
	movq	(%rcx), %rsi
	movl	-32(%rbp), %edi
	movq	-160(%rbp), %r8         ## 8-byte Reload
	movq	%rsi, -200(%rbp)        ## 8-byte Spill
	movq	%r8, %rsi
	movq	-200(%rbp), %r9         ## 8-byte Reload
	callq	*%r9
	movl	%eax, -52(%rbp)
	.loc	1 78 0                  ## /Users/elliotfiske/471/OpenGL-tutorial_v0014_21/lab4/prog2A.cpp:78:0
	movq	-152(%rbp), %rcx        ## 8-byte Reload
	movq	(%rcx), %rsi
	movl	-32(%rbp), %edi
	movq	-120(%rbp), %r8         ## 8-byte Reload
	movq	%rsi, -208(%rbp)        ## 8-byte Spill
	movq	%r8, %rsi
	movq	-208(%rbp), %r9         ## 8-byte Reload
	callq	*%r9
	movl	%eax, -56(%rbp)
	.loc	1 81 0                  ## /Users/elliotfiske/471/OpenGL-tutorial_v0014_21/lab4/prog2A.cpp:81:0
	movq	-112(%rbp), %rdi        ## 8-byte Reload
	callq	_time
	movl	%eax, %edx
	movl	%edx, %edi
	callq	_srand
	.loc	1 82 0                  ## /Users/elliotfiske/471/OpenGL-tutorial_v0014_21/lab4/prog2A.cpp:82:0
Ltmp25:
	movl	$0, -60(%rbp)
LBB1_7:                                 ## =>This Inner Loop Header: Depth=1
	cmpl	$80, -60(%rbp)
	jge	LBB1_10
## BB#8:                                ##   in Loop: Header=BB1_7 Depth=1
	.loc	1 83 0                  ## /Users/elliotfiske/471/OpenGL-tutorial_v0014_21/lab4/prog2A.cpp:83:0
Ltmp26:
	callq	_rand
	leaq	__ZZ4mainE19g_point_buffer_data(%rip), %rcx
	movabsq	$1, %rdx
	cvtsi2ssq	%rdx, %xmm0
	movabsq	$1073741824, %rdx       ## imm = 0x40000000
	cvtsi2ssq	%rdx, %xmm1
	cvtsi2ssl	%eax, %xmm2
	divss	%xmm1, %xmm2
	subss	%xmm0, %xmm2
	movss	%xmm2, -64(%rbp)
	.loc	1 84 0                  ## /Users/elliotfiske/471/OpenGL-tutorial_v0014_21/lab4/prog2A.cpp:84:0
	movss	-64(%rbp), %xmm0
	movslq	-60(%rbp), %rdx
	movss	%xmm0, (%rcx,%rdx,4)
Ltmp27:
## BB#9:                                ##   in Loop: Header=BB1_7 Depth=1
	.loc	1 82 0                  ## /Users/elliotfiske/471/OpenGL-tutorial_v0014_21/lab4/prog2A.cpp:82:0
	movl	-60(%rbp), %eax
	addl	$1, %eax
	movl	%eax, -60(%rbp)
	jmp	LBB1_7
Ltmp28:
LBB1_10:
	movabsq	$2, %rax
	cvtsi2ssq	%rax, %xmm0
	xorps	%xmm1, %xmm1
	movl	$34962, %ecx            ## imm = 0x8892
	movabsq	$24, %rsi
	leaq	__ZZ4mainE19g_color_buffer_data(%rip), %rax
	movl	$35044, %edx            ## imm = 0x88E4
	movq	___glewBufferData@GOTPCREL(%rip), %rdi
	movq	___glewBindBuffer@GOTPCREL(%rip), %r8
	movl	$1, %r9d
	leaq	-72(%rbp), %r10
	movq	___glewGenBuffers@GOTPCREL(%rip), %r11
	movabsq	$320, %rbx              ## imm = 0x140
	leaq	__ZZ4mainE19g_point_buffer_data(%rip), %r14
	leaq	-68(%rbp), %r15
Ltmp29:
	##DEBUG_VALUE: main:vertexbuffer <- R15
	.loc	1 95 0                  ## /Users/elliotfiske/471/OpenGL-tutorial_v0014_21/lab4/prog2A.cpp:95:0
	movq	%rdi, -216(%rbp)        ## 8-byte Spill
	movl	%r9d, %edi
	movq	%rsi, -224(%rbp)        ## 8-byte Spill
	movq	%r15, %rsi
	movss	%xmm0, -228(%rbp)       ## 4-byte Spill
	movss	%xmm1, -232(%rbp)       ## 4-byte Spill
	movl	%ecx, -236(%rbp)        ## 4-byte Spill
	movq	%rbx, -248(%rbp)        ## 8-byte Spill
	movq	%rax, -256(%rbp)        ## 8-byte Spill
	movl	%edx, -260(%rbp)        ## 4-byte Spill
	movq	%r14, -272(%rbp)        ## 8-byte Spill
	movq	%r8, -280(%rbp)         ## 8-byte Spill
	movl	%r9d, -284(%rbp)        ## 4-byte Spill
	movq	%r10, -296(%rbp)        ## 8-byte Spill
	movq	%r11, -304(%rbp)        ## 8-byte Spill
	callq	*(%r11)
	.loc	1 96 0                  ## /Users/elliotfiske/471/OpenGL-tutorial_v0014_21/lab4/prog2A.cpp:96:0
	movq	-280(%rbp), %rax        ## 8-byte Reload
	movq	(%rax), %rsi
	movl	-68(%rbp), %ecx
	movl	-236(%rbp), %edi        ## 4-byte Reload
	movq	%rsi, -312(%rbp)        ## 8-byte Spill
	movl	%ecx, %esi
	movq	-312(%rbp), %r8         ## 8-byte Reload
	callq	*%r8
	.loc	1 97 0                  ## /Users/elliotfiske/471/OpenGL-tutorial_v0014_21/lab4/prog2A.cpp:97:0
	movl	-236(%rbp), %edi        ## 4-byte Reload
	movq	-248(%rbp), %rsi        ## 8-byte Reload
	movq	-272(%rbp), %rdx        ## 8-byte Reload
	movl	-260(%rbp), %ecx        ## 4-byte Reload
	movq	-216(%rbp), %rax        ## 8-byte Reload
	callq	*(%rax)
Ltmp30:
	##DEBUG_VALUE: main:colorbuffer <- [RBP+-296]
	.loc	1 100 0                 ## /Users/elliotfiske/471/OpenGL-tutorial_v0014_21/lab4/prog2A.cpp:100:0
	movl	-284(%rbp), %edi        ## 4-byte Reload
	movq	-296(%rbp), %rsi        ## 8-byte Reload
	movq	-304(%rbp), %rax        ## 8-byte Reload
	callq	*(%rax)
	.loc	1 101 0                 ## /Users/elliotfiske/471/OpenGL-tutorial_v0014_21/lab4/prog2A.cpp:101:0
	movq	-280(%rbp), %rax        ## 8-byte Reload
	movq	(%rax), %rdx
	movl	-72(%rbp), %esi
	movl	-236(%rbp), %edi        ## 4-byte Reload
	callq	*%rdx
	.loc	1 102 0                 ## /Users/elliotfiske/471/OpenGL-tutorial_v0014_21/lab4/prog2A.cpp:102:0
	movl	-236(%rbp), %edi        ## 4-byte Reload
	movq	-224(%rbp), %rsi        ## 8-byte Reload
	movq	-256(%rbp), %rdx        ## 8-byte Reload
	movl	-260(%rbp), %ecx        ## 4-byte Reload
	movq	-216(%rbp), %rax        ## 8-byte Reload
	callq	*(%rax)
	.loc	1 105 0                 ## /Users/elliotfiske/471/OpenGL-tutorial_v0014_21/lab4/prog2A.cpp:105:0
	movss	-232(%rbp), %xmm0       ## 4-byte Reload
	movss	%xmm0, -76(%rbp)
	.loc	1 107 0                 ## /Users/elliotfiske/471/OpenGL-tutorial_v0014_21/lab4/prog2A.cpp:107:0
	movss	-228(%rbp), %xmm1       ## 4-byte Reload
	movss	%xmm1, -80(%rbp)
Ltmp31:
LBB1_11:                                ## =>This Inner Loop Header: Depth=1
	movl	$16384, %edi            ## imm = 0x4000
	.loc	1 112 0                 ## /Users/elliotfiske/471/OpenGL-tutorial_v0014_21/lab4/prog2A.cpp:112:0
Ltmp32:
	callq	_glClear
	movq	___glewUseProgram@GOTPCREL(%rip), %rax
	.loc	1 115 0                 ## /Users/elliotfiske/471/OpenGL-tutorial_v0014_21/lab4/prog2A.cpp:115:0
	movq	(%rax), %rax
	movl	-32(%rbp), %edi
	callq	*%rax
	.loc	1 118 0                 ## /Users/elliotfiske/471/OpenGL-tutorial_v0014_21/lab4/prog2A.cpp:118:0
Ltmp33:
	movl	_width(%rip), %edi
	cmpl	_height(%rip), %edi
	jle	LBB1_13
## BB#12:                               ##   in Loop: Header=BB1_11 Depth=1
	movabsq	$1, %rax
	cvtsi2ssq	%rax, %xmm1
	movq	___glewUniform2f@GOTPCREL(%rip), %rax
	.loc	1 119 0                 ## /Users/elliotfiske/471/OpenGL-tutorial_v0014_21/lab4/prog2A.cpp:119:0
Ltmp34:
	movq	(%rax), %rax
	movl	-44(%rbp), %edi
	cvtsi2ssl	_height(%rip), %xmm0
	cvtsi2ssl	_width(%rip), %xmm2
	divss	%xmm2, %xmm0
	callq	*%rax
	.loc	1 120 0                 ## /Users/elliotfiske/471/OpenGL-tutorial_v0014_21/lab4/prog2A.cpp:120:0
	jmp	LBB1_14
Ltmp35:
LBB1_13:                                ##   in Loop: Header=BB1_11 Depth=1
	movabsq	$1, %rax
	cvtsi2ssq	%rax, %xmm0
	movq	___glewUniform2f@GOTPCREL(%rip), %rax
	.loc	1 122 0                 ## /Users/elliotfiske/471/OpenGL-tutorial_v0014_21/lab4/prog2A.cpp:122:0
Ltmp36:
	movq	(%rax), %rax
	movl	-44(%rbp), %edi
	cvtsi2ssl	_width(%rip), %xmm1
	cvtsi2ssl	_height(%rip), %xmm2
	divss	%xmm2, %xmm1
	callq	*%rax
Ltmp37:
LBB1_14:                                ##   in Loop: Header=BB1_11 Depth=1
	movabsq	$2, %rax
	cvtsi2sdq	%rax, %xmm0
	movsd	LCPI1_0(%rip), %xmm1
	cvtsi2ssq	%rax, %xmm2
	movq	___glewUniform1f@GOTPCREL(%rip), %rax
	movss	LCPI1_1(%rip), %xmm3
	movq	___glewUniform2f@GOTPCREL(%rip), %rcx
	.loc	1 124 0                 ## /Users/elliotfiske/471/OpenGL-tutorial_v0014_21/lab4/prog2A.cpp:124:0
	movq	(%rcx), %rcx
	movl	-48(%rbp), %edi
	cvtsi2ssl	_width(%rip), %xmm4
	divss	%xmm2, %xmm4
	cvtsi2ssl	_height(%rip), %xmm5
	divss	%xmm2, %xmm5
	movsd	%xmm0, -320(%rbp)       ## 8-byte Spill
	movaps	%xmm4, %xmm0
	movsd	%xmm1, -328(%rbp)       ## 8-byte Spill
	movaps	%xmm5, %xmm1
	movss	%xmm3, -332(%rbp)       ## 4-byte Spill
	movq	%rax, -344(%rbp)        ## 8-byte Spill
	movss	%xmm2, -348(%rbp)       ## 4-byte Spill
	callq	*%rcx
	.loc	1 125 0                 ## /Users/elliotfiske/471/OpenGL-tutorial_v0014_21/lab4/prog2A.cpp:125:0
	movq	-344(%rbp), %rax        ## 8-byte Reload
	movq	(%rax), %rcx
	movl	-56(%rbp), %edi
	movss	-332(%rbp), %xmm0       ## 4-byte Reload
	callq	*%rcx
	.loc	1 128 0                 ## /Users/elliotfiske/471/OpenGL-tutorial_v0014_21/lab4/prog2A.cpp:128:0
	movq	-344(%rbp), %rax        ## 8-byte Reload
	movq	(%rax), %rcx
	movl	-52(%rbp), %edi
	movss	-76(%rbp), %xmm0
	movss	-348(%rbp), %xmm1       ## 4-byte Reload
	divss	%xmm1, %xmm0
	callq	*%rcx
	.loc	1 129 0                 ## /Users/elliotfiske/471/OpenGL-tutorial_v0014_21/lab4/prog2A.cpp:129:0
Ltmp38:
	cvtss2sd	-76(%rbp), %xmm0
	movsd	-328(%rbp), %xmm1       ## 8-byte Reload
	addsd	%xmm1, %xmm0
	movsd	-320(%rbp), %xmm2       ## 8-byte Reload
	ucomisd	%xmm0, %xmm2
	jbe	LBB1_16
## BB#15:                               ##   in Loop: Header=BB1_11 Depth=1
	movsd	LCPI1_0(%rip), %xmm0
	.loc	1 130 0                 ## /Users/elliotfiske/471/OpenGL-tutorial_v0014_21/lab4/prog2A.cpp:130:0
Ltmp39:
	cvtss2sd	-76(%rbp), %xmm1
	addsd	%xmm0, %xmm1
	cvtsd2ss	%xmm1, %xmm0
	movss	%xmm0, -76(%rbp)
	.loc	1 131 0                 ## /Users/elliotfiske/471/OpenGL-tutorial_v0014_21/lab4/prog2A.cpp:131:0
	jmp	LBB1_17
Ltmp40:
LBB1_16:                                ##   in Loop: Header=BB1_11 Depth=1
	movabsq	$2, %rax
	cvtsi2ssq	%rax, %xmm0
	.loc	1 133 0                 ## /Users/elliotfiske/471/OpenGL-tutorial_v0014_21/lab4/prog2A.cpp:133:0
Ltmp41:
	movss	%xmm0, -76(%rbp)
Ltmp42:
LBB1_17:                                ##   in Loop: Header=BB1_11 Depth=1
	movl	$0, %eax
	movl	$80, %edx
	movl	$3, %ecx
	movl	$5126, %esi             ## imm = 0x1406
	movabsq	$0, %rdi
	movq	___glewVertexAttribPointer@GOTPCREL(%rip), %r8
	movl	$34962, %r9d            ## imm = 0x8892
	movq	___glewBindBuffer@GOTPCREL(%rip), %r10
	movq	___glewEnableVertexAttribArray@GOTPCREL(%rip), %r11
	.loc	1 138 0                 ## /Users/elliotfiske/471/OpenGL-tutorial_v0014_21/lab4/prog2A.cpp:138:0
	movq	(%r11), %rbx
	movl	-36(%rbp), %r14d
	movq	%rdi, -360(%rbp)        ## 8-byte Spill
	movl	%r14d, %edi
	movl	%eax, -364(%rbp)        ## 4-byte Spill
	movl	%edx, -368(%rbp)        ## 4-byte Spill
	movl	%ecx, -372(%rbp)        ## 4-byte Spill
	movl	%esi, -376(%rbp)        ## 4-byte Spill
	movq	%r11, -384(%rbp)        ## 8-byte Spill
	movq	%r8, -392(%rbp)         ## 8-byte Spill
	movl	%r9d, -396(%rbp)        ## 4-byte Spill
	movq	%r10, -408(%rbp)        ## 8-byte Spill
	callq	*%rbx
	.loc	1 139 0                 ## /Users/elliotfiske/471/OpenGL-tutorial_v0014_21/lab4/prog2A.cpp:139:0
	movq	-408(%rbp), %r8         ## 8-byte Reload
	movq	(%r8), %r10
	movl	-68(%rbp), %esi
	movl	-396(%rbp), %edi        ## 4-byte Reload
	callq	*%r10
	.loc	1 140 0                 ## /Users/elliotfiske/471/OpenGL-tutorial_v0014_21/lab4/prog2A.cpp:140:0
	movq	-392(%rbp), %r8         ## 8-byte Reload
	movq	(%r8), %r10
	movl	-36(%rbp), %edi
	movl	-372(%rbp), %esi        ## 4-byte Reload
	movl	-376(%rbp), %edx        ## 4-byte Reload
	movl	-364(%rbp), %ecx        ## 4-byte Reload
	movl	-364(%rbp), %r8d        ## 4-byte Reload
	movq	-360(%rbp), %r9         ## 8-byte Reload
	callq	*%r10
	.loc	1 150 0                 ## /Users/elliotfiske/471/OpenGL-tutorial_v0014_21/lab4/prog2A.cpp:150:0
	movq	-384(%rbp), %r9         ## 8-byte Reload
	movq	(%r9), %r10
	movl	-40(%rbp), %edi
	callq	*%r10
	.loc	1 151 0                 ## /Users/elliotfiske/471/OpenGL-tutorial_v0014_21/lab4/prog2A.cpp:151:0
	movq	-408(%rbp), %r9         ## 8-byte Reload
	movq	(%r9), %r10
	movl	-72(%rbp), %esi
	movl	-396(%rbp), %edi        ## 4-byte Reload
	callq	*%r10
	.loc	1 152 0                 ## /Users/elliotfiske/471/OpenGL-tutorial_v0014_21/lab4/prog2A.cpp:152:0
	movq	-392(%rbp), %r9         ## 8-byte Reload
	movq	(%r9), %r10
	movl	-40(%rbp), %edi
	movl	-372(%rbp), %esi        ## 4-byte Reload
	movl	-376(%rbp), %edx        ## 4-byte Reload
	movl	-364(%rbp), %ecx        ## 4-byte Reload
	movl	-364(%rbp), %r8d        ## 4-byte Reload
	movq	-360(%rbp), %r9         ## 8-byte Reload
	callq	*%r10
	.loc	1 162 0                 ## /Users/elliotfiske/471/OpenGL-tutorial_v0014_21/lab4/prog2A.cpp:162:0
	movl	-364(%rbp), %edi        ## 4-byte Reload
	movl	-364(%rbp), %esi        ## 4-byte Reload
	movl	-368(%rbp), %edx        ## 4-byte Reload
	callq	_glDrawArrays
	movq	___glewDisableVertexAttribArray@GOTPCREL(%rip), %r9
	.loc	1 164 0                 ## /Users/elliotfiske/471/OpenGL-tutorial_v0014_21/lab4/prog2A.cpp:164:0
	movq	(%r9), %r9
	movl	-36(%rbp), %edi
	callq	*%r9
	.loc	1 167 0                 ## /Users/elliotfiske/471/OpenGL-tutorial_v0014_21/lab4/prog2A.cpp:167:0
	movq	_window(%rip), %rdi
	callq	_glfwSwapBuffers
	.loc	1 168 0                 ## /Users/elliotfiske/471/OpenGL-tutorial_v0014_21/lab4/prog2A.cpp:168:0
	callq	_glfwPollEvents
Ltmp43:
## BB#18:                               ##   in Loop: Header=BB1_11 Depth=1
	movl	$256, %esi              ## imm = 0x100
	.loc	1 171 0                 ## /Users/elliotfiske/471/OpenGL-tutorial_v0014_21/lab4/prog2A.cpp:171:0
	movq	_window(%rip), %rdi
	callq	_glfwGetKey
	movb	$0, %cl
	cmpl	$1, %eax
	movb	%cl, -409(%rbp)         ## 1-byte Spill
	je	LBB1_20
## BB#19:                               ##   in Loop: Header=BB1_11 Depth=1
	.loc	1 172 0                 ## /Users/elliotfiske/471/OpenGL-tutorial_v0014_21/lab4/prog2A.cpp:172:0
	movq	_window(%rip), %rdi
	callq	_glfwWindowShouldClose
	cmpl	$0, %eax
	sete	%cl
	movb	%cl, -409(%rbp)         ## 1-byte Spill
LBB1_20:                                ##   in Loop: Header=BB1_11 Depth=1
	movb	-409(%rbp), %al         ## 1-byte Reload
	testb	$1, %al
	jne	LBB1_11
## BB#21:
	movq	___glewDeleteProgram@GOTPCREL(%rip), %rax
	movl	$1, %edi
	leaq	-68(%rbp), %rsi
	movq	___glewDeleteBuffers@GOTPCREL(%rip), %rcx
	.loc	1 176 0                 ## /Users/elliotfiske/471/OpenGL-tutorial_v0014_21/lab4/prog2A.cpp:176:0
	movq	%rax, -424(%rbp)        ## 8-byte Spill
	callq	*(%rcx)
	.loc	1 177 0                 ## /Users/elliotfiske/471/OpenGL-tutorial_v0014_21/lab4/prog2A.cpp:177:0
	movq	-424(%rbp), %rax        ## 8-byte Reload
	movq	(%rax), %rcx
	movl	-32(%rbp), %edi
	callq	*%rcx
	.loc	1 180 0                 ## /Users/elliotfiske/471/OpenGL-tutorial_v0014_21/lab4/prog2A.cpp:180:0
	callq	_glfwTerminate
	.loc	1 182 0                 ## /Users/elliotfiske/471/OpenGL-tutorial_v0014_21/lab4/prog2A.cpp:182:0
	movl	$0, -28(%rbp)
LBB1_22:
	.loc	1 183 0                 ## /Users/elliotfiske/471/OpenGL-tutorial_v0014_21/lab4/prog2A.cpp:183:0
	movl	-28(%rbp), %eax
	addq	$408, %rsp              ## imm = 0x198
	popq	%rbx
	popq	%r14
	popq	%r15
	popq	%rbp
Ltmp44:
	retq
Ltmp45:
Lfunc_end1:
	.cfi_endproc

	.globl	_window                 ## @window
.zerofill __DATA,__common,_window,8,3
	.globl	_width                  ## @width
.zerofill __DATA,__common,_width,4,2
	.globl	_height                 ## @height
.zerofill __DATA,__common,_height,4,2
	.section	__TEXT,__cstring,cstring_literals
L_.str:                                 ## @.str
	.asciz	"Width: %d, Height: %d\n"

L_.str1:                                ## @.str1
	.asciz	"Failed to initialize GLFW\n"

L_.str2:                                ## @.str2
	.asciz	"Program 2A - fun with points"

L_.str3:                                ## @.str3
	.asciz	"Failed to open GLFW window. If you have an Intel GPU, they are not 3.3 compatible. Try the 2.1 version of the tutorials.\n"

L_.str4:                                ## @.str4
	.asciz	"Failed to initialize GLEW\n"

L_.str5:                                ## @.str5
	.asciz	"SimpleVertexShader.vertexshader"

L_.str6:                                ## @.str6
	.asciz	"SimpleFragmentShader.fragmentshader"

L_.str7:                                ## @.str7
	.asciz	"vertexPosition_modelspace"

L_.str8:                                ## @.str8
	.asciz	"vertexColor"

L_.str9:                                ## @.str9
	.asciz	"uWinScale"

L_.str10:                               ## @.str10
	.asciz	"uWinCenter"

L_.str11:                               ## @.str11
	.asciz	"uTime"

L_.str12:                               ## @.str12
	.asciz	"uTargetDist"

.zerofill __DATA,__bss,__ZZ4mainE19g_point_buffer_data,320,4 ## @_ZZ4mainE19g_point_buffer_data
	.section	__TEXT,__const
	.align	4                       ## @_ZZ4mainE19g_color_buffer_data
__ZZ4mainE19g_color_buffer_data:
	.long	1065353216              ## float 1.000000e+00
	.long	1065353216              ## float 1.000000e+00
	.long	1065353216              ## float 1.000000e+00
	.long	1065353216              ## float 1.000000e+00
	.long	1065353216              ## float 1.000000e+00
	.long	1065353216              ## float 1.000000e+00

	.section	__DATA,__bss
Ldebug_end0:
	.section	__DATA,__common
Ldebug_end1:
	.section	__TEXT,__const
Ldebug_end2:
	.section	__TEXT,__text,regular,pure_instructions
Ldebug_end3: